target datalayout = "e-m:e-p270:32:32-p271:32:32-p272:64:64-i64:64-i128:128-f80:128-n8:16:32:64-S128"
target triple = "x86_64-pc-linux-gnu"

%struct.Vec_Int_t_ = type { i32, i32, ptr }

@.str.2 = private unnamed_addr constant [9 x i8] c"%d '%c' \00", align 1
@.str.3 = private unnamed_addr constant [12 x i8] c"-> %d '%c' \00", align 1
@.str.4 = private unnamed_addr constant [2 x i8] c"\0A\00", align 1

; Function Attrs: nounwind uwtable
define internal i32 @Vec_IntEntry(ptr noundef %0, i32 noundef %1) #0 {
  %3 = alloca ptr, align 8
  %4 = alloca i32, align 4
  store ptr %0, ptr %3, align 8
  store i32 %1, ptr %4, align 4
  %5 = load ptr, ptr %3, align 8
  %6 = getelementptr inbounds %struct.Vec_Int_t_, ptr %5, i32 0, i32 2
  %7 = load ptr, ptr %6, align 8
  %8 = load i32, ptr %4, align 4
  %9 = sext i32 %8 to i64
  %10 = getelementptr inbounds i32, ptr %7, i64 %9
  %11 = load i32, ptr %10, align 4
  ret i32 %11
}

; Function Attrs: nounwind uwtable
define void @Gia_ManPrintAutom(ptr noundef %0, ptr noundef %1) #0 {
  %3 = alloca ptr, align 8
  %4 = alloca ptr, align 8
  %5 = alloca i32, align 4
  %6 = alloca i32, align 4
  store ptr %0, ptr %3, align 8
  store ptr %1, ptr %4, align 8
  store i32 0, ptr %5, align 4
  %7 = load ptr, ptr %3, align 8
  %8 = call i64 @strlen(ptr noundef %7) #9
  %9 = trunc i64 %8 to i32
  store i32 %9, ptr %6, align 4
  store i32 0, ptr %5, align 4
  br label %10

10:                                               ; preds = %42, %2
  %11 = load i32, ptr %5, align 4
  %12 = load i32, ptr %6, align 4
  %13 = icmp slt i32 %11, %12
  br i1 %13, label %14, label %45

14:                                               ; preds = %10
  %15 = load i32, ptr %5, align 4
  %16 = load ptr, ptr %3, align 8
  %17 = load i32, ptr %5, align 4
  %18 = sext i32 %17 to i64
  %19 = getelementptr inbounds i8, ptr %16, i64 %18
  %20 = load i8, ptr %19, align 1
  %21 = sext i8 %20 to i32
  %22 = call i32 (ptr, ...) @printf(ptr noundef @.str.2, i32 noundef %15, i32 noundef %21)
  %23 = load ptr, ptr %4, align 8
  %24 = load i32, ptr %5, align 4
  %25 = call i32 @Vec_IntEntry(ptr noundef %23, i32 noundef %24)
  %26 = icmp sge i32 %25, 0
  br i1 %26, label %27, label %40

27:                                               ; preds = %14
  %28 = load ptr, ptr %4, align 8
  %29 = load i32, ptr %5, align 4
  %30 = call i32 @Vec_IntEntry(ptr noundef %28, i32 noundef %29)
  %31 = load ptr, ptr %3, align 8
  %32 = load ptr, ptr %4, align 8
  %33 = load i32, ptr %5, align 4
  %34 = call i32 @Vec_IntEntry(ptr noundef %32, i32 noundef %33)
  %35 = sext i32 %34 to i64
  %36 = getelementptr inbounds i8, ptr %31, i64 %35
  %37 = load i8, ptr %36, align 1
  %38 = sext i8 %37 to i32
  %39 = call i32 (ptr, ...) @printf(ptr noundef @.str.3, i32 noundef %30, i32 noundef %38)
  br label %40

40:                                               ; preds = %27, %14
  %41 = call i32 (ptr, ...) @printf(ptr noundef @.str.4)
  br label %42

42:                                               ; preds = %40
  %43 = load i32, ptr %5, align 4
  %44 = add nsw i32 %43, 1
  store i32 %44, ptr %5, align 4
  br label %10, !llvm.loop !13

45:                                               ; preds = %10
  ret void
}